; Function Attrs: nofree norecurse nosync nounwind memory(argmem: readwrite) uwtable
define internal void @blend_darken_8bit(ptr noundef readonly captures(none) %0, i64 noundef %1, ptr noundef readonly captures(none) %2, i64 noundef %3, ptr noundef writeonly captures(none) %4, i64 noundef %5, i64 noundef %6, i64 noundef %7, ptr noundef readonly captures(none) %8, ptr readnone captures(none) %9) #6 {
  %11 = getelementptr inbounds nuw i8, ptr %8, i64 8
  %12 = load double, ptr %11, align 8, !tbaa !70
  %13 = fptrunc nsz double %12 to float
  %14 = icmp sgt i64 %7, 0
  %15 = icmp sgt i64 %6, 0
  %or.cond = and i1 %14, %15
  br i1 %or.cond, label %.preheader.us, label %._crit_edge45

.preheader.us:                                    ; preds = %10, %._crit_edge.us
  %indvars.iv49 = phi i64 [ %indvars.iv.next50, %._crit_edge.us ], [ 0, %10 ]
  %.03443.us = phi ptr [ %29, %._crit_edge.us ], [ %4, %10 ]
  %.03542.us = phi ptr [ %31, %._crit_edge.us ], [ %2, %10 ]
  %.03641.us = phi ptr [ %30, %._crit_edge.us ], [ %0, %10 ]
  br label %16

16:                                               ; preds = %.preheader.us, %16
  %indvars.iv = phi i64 [ 0, %.preheader.us ], [ %indvars.iv.next, %16 ]
  %17 = getelementptr inbounds nuw i8, ptr %.03641.us, i64 %indvars.iv
  %18 = load i8, ptr %17, align 1, !tbaa !89
  %19 = uitofp i8 %18 to float
  %20 = getelementptr inbounds nuw i8, ptr %.03542.us, i64 %indvars.iv
  %21 = load i8, ptr %20, align 1, !tbaa !89
  %..us = tail call i8 @llvm.umin.i8(i8 %18, i8 %21)
  %22 = zext i8 %..us to i32
  %23 = zext i8 %18 to i32
  %24 = sub nsw i32 %22, %23
  %25 = sitofp i32 %24 to float
  %26 = tail call nsz float @llvm.fmuladd.f32(float %25, float %13, float %19)
  %27 = fptoui float %26 to i8
  %28 = getelementptr inbounds nuw i8, ptr %.03443.us, i64 %indvars.iv
  store i8 %27, ptr %28, align 1, !tbaa !89
  %indvars.iv.next = add nuw nsw i64 %indvars.iv, 1
  %exitcond.not = icmp eq i64 %indvars.iv.next, %6
  br i1 %exitcond.not, label %._crit_edge.us, label %16, !llvm.loop !102

._crit_edge.us:                                   ; preds = %16
  %29 = getelementptr inbounds i8, ptr %.03443.us, i64 %5
  %30 = getelementptr inbounds i8, ptr %.03641.us, i64 %1
  %31 = getelementptr inbounds i8, ptr %.03542.us, i64 %3
  %indvars.iv.next50 = add nuw nsw i64 %indvars.iv49, 1
  %exitcond52.not = icmp eq i64 %indvars.iv.next50, %7
  br i1 %exitcond52.not, label %._crit_edge45, label %.preheader.us, !llvm.loop !103

._crit_edge45:                                    ; preds = %._crit_edge.us, %10
  ret void
}